; ModuleID = '44/757.c'
source_filename = "44/757.c"
target datalayout = "e-m:e-p270:32:32-p271:32:32-p272:64:64-i64:64-f80:128-n8:16:32:64-S128"
target triple = "x86_64-pc-linux-gnu"

@.str = private unnamed_addr constant [2 x i8] c"0\00", align 1
@.str.1 = private unnamed_addr constant [3 x i8] c"%d\00", align 1
@.str.2 = private unnamed_addr constant [2 x i8] c"-\00", align 1
@.str.3 = private unnamed_addr constant [2 x i8] c"\0A\00", align 1

; Function Attrs: noinline nounwind uwtable
define dso_local void @reverse(i32 %0) #0 {
  %2 = alloca i32, align 4
  %3 = alloca i32, align 4
  %4 = alloca i32, align 4
  %5 = alloca i32, align 4
  %6 = alloca [1000 x i32], align 16
  store i32 %0, i32* %2, align 4
  store i32 0, i32* %5, align 4
  %7 = load i32, i32* %2, align 4
  %8 = icmp eq i32 %7, 0
  br i1 %8, label %9, label %11

9:                                                ; preds = %1
  %10 = call i32 (i8*, ...) @printf(i8* getelementptr inbounds ([2 x i8], [2 x i8]* @.str, i64 0, i64 0))
  br label %114

11:                                               ; preds = %1
  %12 = load i32, i32* %2, align 4
  %13 = icmp sgt i32 %12, 0
  br i1 %13, label %14, label %60

14:                                               ; preds = %11
  br label %15

15:                                               ; preds = %25, %14
  %16 = load i32, i32* %2, align 4
  %17 = srem i32 %16, 10
  %18 = load i32, i32* %5, align 4
  %19 = sext i32 %18 to i64
  %20 = getelementptr inbounds [1000 x i32], [1000 x i32]* %6, i64 0, i64 %19
  store i32 %17, i32* %20, align 4
  %21 = load i32, i32* %2, align 4
  %22 = sdiv i32 %21, 10
  store i32 %22, i32* %2, align 4
  %23 = load i32, i32* %5, align 4
  %24 = add nsw i32 %23, 1
  store i32 %24, i32* %5, align 4
  br label %25

25:                                               ; preds = %15
  %26 = load i32, i32* %2, align 4
  %27 = icmp sgt i32 %26, 0
  br i1 %27, label %15, label %28

28:                                               ; preds = %25
  store i32 0, i32* %3, align 4
  br label %29

29:                                               ; preds = %41, %28
  %30 = load i32, i32* %3, align 4
  %31 = load i32, i32* %5, align 4
  %32 = icmp slt i32 %30, %31
  br i1 %32, label %33, label %44

33:                                               ; preds = %29
  %34 = load i32, i32* %3, align 4
  %35 = sext i32 %34 to i64
  %36 = getelementptr inbounds [1000 x i32], [1000 x i32]* %6, i64 0, i64 %35
  %37 = load i32, i32* %36, align 4
  %38 = icmp ne i32 %37, 0
  br i1 %38, label %39, label %40

39:                                               ; preds = %33
  br label %44

40:                                               ; preds = %33
  br label %41

41:                                               ; preds = %40
  %42 = load i32, i32* %3, align 4
  %43 = add nsw i32 %42, 1
  store i32 %43, i32* %3, align 4
  br label %29

44:                                               ; preds = %39, %29
  %45 = load i32, i32* %3, align 4
  store i32 %45, i32* %4, align 4
  br label %46

46:                                               ; preds = %56, %44
  %47 = load i32, i32* %4, align 4
  %48 = load i32, i32* %5, align 4
  %49 = icmp slt i32 %47, %48
  br i1 %49, label %50, label %59

50:                                               ; preds = %46
  %51 = load i32, i32* %4, align 4
  %52 = sext i32 %51 to i64
  %53 = getelementptr inbounds [1000 x i32], [1000 x i32]* %6, i64 0, i64 %52
  %54 = load i32, i32* %53, align 4
  %55 = call i32 (i8*, ...) @printf(i8* getelementptr inbounds ([3 x i8], [3 x i8]* @.str.1, i64 0, i64 0), i32 %54)
  br label %56

56:                                               ; preds = %50
  %57 = load i32, i32* %4, align 4
  %58 = add nsw i32 %57, 1
  store i32 %58, i32* %4, align 4
  br label %46

59:                                               ; preds = %46
  br label %113

60:                                               ; preds = %11
  %61 = load i32, i32* %2, align 4
  %62 = icmp slt i32 %61, 0
  br i1 %62, label %63, label %112

63:                                               ; preds = %60
  %64 = load i32, i32* %2, align 4
  %65 = sub nsw i32 0, %64
  store i32 %65, i32* %2, align 4
  br label %66

66:                                               ; preds = %76, %63
  %67 = load i32, i32* %2, align 4
  %68 = srem i32 %67, 10
  %69 = load i32, i32* %5, align 4
  %70 = sext i32 %69 to i64
  %71 = getelementptr inbounds [1000 x i32], [1000 x i32]* %6, i64 0, i64 %70
  store i32 %68, i32* %71, align 4
  %72 = load i32, i32* %2, align 4
  %73 = sdiv i32 %72, 10
  store i32 %73, i32* %2, align 4
  %74 = load i32, i32* %5, align 4
  %75 = add nsw i32 %74, 1
  store i32 %75, i32* %5, align 4
  br label %76

76:                                               ; preds = %66
  %77 = load i32, i32* %2, align 4
  %78 = icmp sgt i32 %77, 0
  br i1 %78, label %66, label %79

79:                                               ; preds = %76
  store i32 0, i32* %3, align 4
  br label %80

80:                                               ; preds = %92, %79
  %81 = load i32, i32* %3, align 4
  %82 = load i32, i32* %5, align 4
  %83 = icmp slt i32 %81, %82
  br i1 %83, label %84, label %95

84:                                               ; preds = %80
  %85 = load i32, i32* %3, align 4
  %86 = sext i32 %85 to i64
  %87 = getelementptr inbounds [1000 x i32], [1000 x i32]* %6, i64 0, i64 %86
  %88 = load i32, i32* %87, align 4
  %89 = icmp ne i32 %88, 0
  br i1 %89, label %90, label %91

90:                                               ; preds = %84
  br label %95

91:                                               ; preds = %84
  br label %92

92:                                               ; preds = %91
  %93 = load i32, i32* %3, align 4
  %94 = add nsw i32 %93, 1
  store i32 %94, i32* %3, align 4
  br label %80

95:                                               ; preds = %90, %80
  %96 = call i32 (i8*, ...) @printf(i8* getelementptr inbounds ([2 x i8], [2 x i8]* @.str.2, i64 0, i64 0))
  %97 = load i32, i32* %3, align 4
  store i32 %97, i32* %4, align 4
  br label %98

98:                                               ; preds = %108, %95
  %99 = load i32, i32* %4, align 4
  %100 = load i32, i32* %5, align 4
  %101 = icmp slt i32 %99, %100
  br i1 %101, label %102, label %111

102:                                              ; preds = %98
  %103 = load i32, i32* %4, align 4
  %104 = sext i32 %103 to i64
  %105 = getelementptr inbounds [1000 x i32], [1000 x i32]* %6, i64 0, i64 %104
  %106 = load i32, i32* %105, align 4
  %107 = call i32 (i8*, ...) @printf(i8* getelementptr inbounds ([3 x i8], [3 x i8]* @.str.1, i64 0, i64 0), i32 %106)
  br label %108

108:                                              ; preds = %102
  %109 = load i32, i32* %4, align 4
  %110 = add nsw i32 %109, 1
  store i32 %110, i32* %4, align 4
  br label %98

111:                                              ; preds = %98
  br label %112

112:                                              ; preds = %111, %60
  br label %113

113:                                              ; preds = %112, %59
  br label %114

114:                                              ; preds = %113, %9
  ret void
}

declare dso_local i32 @printf(i8*, ...) #1

; Function Attrs: noinline nounwind uwtable
define dso_local i32 @main() #0 {
  %1 = alloca i32, align 4
  %2 = alloca i32, align 4
  %3 = alloca i32, align 4
  store i32 0, i32* %1, align 4
  store i32 0, i32* %2, align 4
  br label %4

4:                                                ; preds = %11, %0
  %5 = load i32, i32* %2, align 4
  %6 = icmp slt i32 %5, 6
  br i1 %6, label %7, label %14

7:                                                ; preds = %4
  %8 = call i32 (i8*, ...) @__isoc99_scanf(i8* getelementptr inbounds ([3 x i8], [3 x i8]* @.str.1, i64 0, i64 0), i32* %3)
  %9 = load i32, i32* %3, align 4
  call void @reverse(i32 %9)
  %10 = call i32 (i8*, ...) @printf(i8* getelementptr inbounds ([2 x i8], [2 x i8]* @.str.3, i64 0, i64 0))
  br label %11

11:                                               ; preds = %7
  %12 = load i32, i32* %2, align 4
  %13 = add nsw i32 %12, 1
  store i32 %13, i32* %2, align 4
  br label %4

14:                                               ; preds = %4
  ret i32 0
}

declare dso_local i32 @__isoc99_scanf(i8*, ...) #1


!llvm.module.flags = !{!0}
!llvm.ident = !{!1}

!0 = !{i32 1, !"wchar_size", i32 4}
!1 = !{!"clang version 10.0.0-4ubuntu1 "}
